Certificate:
    Data:
        Version: 3 (0x2)
        Serial Number: 1 (0x1)
        Signature Algorithm: sha256WithRSAEncryption
        Issuer: C=US, ST=New Jersey, L=Princeton, O=Princeton University, OU=PNI, CN=rtcloud.princeton.edu
        Validity
            Not Before: Jan  1 12:00:00 2019 GMT
            Not After : Jan  1 12:00:00 2024 GMT
        Subject: C=US, ST=New Jersey, L=Princeton, O=Princeton University, OU=PNI, CN=rtcloud.princeton.edu
        Subject Public Key Info:
            Public Key Algorithm: rsaEncryption
                RSA Public-Key: (2048 bit)
                Modulus:
                    00:d0:a6:5e:0c:b9:42:1f:ca:c9:0a:8b:62:97:e1:
                    05:7b:bb:d0:90:0d:4c:ee:7a:95:45:d5:75:cd:26:
                    b1:84:bb:9e:0f:6a:dc:03:1f:d8:a7:ee:7d:eb:38:
                    fd:2a:90:3a:1d:71:b3:be:77:e9:38:b3:ce:e1:62:
                    c0:3a:f6:83:c2:eb:d5:01:9e:4d:f4:bf:3e:05:62:
                    b5:46:83:39:b6:64:50:fb:c4:e7:59:4a:e1:4a:0a:
                    06:08:27:db:35:07:ee:26:6d:c3:1d:f5:29:a9:9c:
                    33:11:40:1b:df:6c:eb:29:e0:f2:e9:e5:e2:bf:44:
                    05:48:ed:95:2b:d0:55:cc:7f:35:8f:b8:8f:4b:71:
                    49:57:2c:be:24:bd:a8:8e:76:a2:09:45:d9:40:1e:
                    35:88:17:e3:45:d1:e7:f7:94:e8:57:f8:9f:76:db:
                    02:74:d3:20:b9:38:5f:4e:59:92:44:4f:85:1b:7b:
                    b3:b5:80:9e:07:5a:3c:ec:09:86:07:e9:68:3c:30:
                    2c:ad:1a:e3:28:a9:e8:d6:25:b6:67:2a:03:b6:cc:
                    11:39:79:41:10:fe:f7:6d:10:46:5f:26:59:aa:07:
                    bf:92:ed:a9:6a:19:e2:5e:d8:8d:cc:17:33:0b:ff:
                    8d:7b:96:e6:c9:db:e3:5e:7b:b9:39:df:86:0c:58:
                    75:71
                Exponent: 65537 (0x10001)
        X509v3 extensions:
            X509v3 Subject Alternative Name: 
                DNS:princeton.edu, DNS:localhost, DNS:localhost, IP Address:2607:F470:6:3001:7517:A155:FB0D:DB0F
    Signature Algorithm: sha256WithRSAEncryption
         b8:49:df:ea:42:09:d4:40:0f:66:4c:80:72:03:32:da:01:5d:
         5a:c0:95:0d:21:e9:7c:57:f9:93:21:8e:02:4d:77:4e:33:85:
         8d:35:af:b6:7c:c2:7a:51:dc:83:e8:32:cd:19:f3:99:3b:2a:
         ea:f1:22:6e:b1:a9:16:b5:0a:d9:ff:03:72:18:1f:28:51:7d:
         51:cd:8f:f0:f2:89:22:86:95:6d:e3:81:f6:73:e0:6e:20:42:
         e6:57:0c:7a:ac:a1:23:5b:0d:78:24:92:17:7b:f6:02:22:35:
         9f:39:c5:a3:54:91:ec:48:c5:b1:32:ad:ff:9f:6e:c6:1a:8f:
         cb:63:b8:bd:c2:0f:03:06:09:08:31:52:a0:7b:35:79:59:a9:
         2f:d1:f2:44:37:99:2d:9b:cf:4d:38:08:1a:6e:b0:5f:7a:94:
         d1:0a:d8:41:5f:1d:d1:a4:ed:93:94:bf:ab:c7:09:e7:63:44:
         c1:2a:2d:b0:d5:59:b0:7e:66:cc:cb:60:3e:80:19:98:19:c9:
         9b:13:e2:d3:64:41:9d:d4:66:53:ce:f9:a8:e5:bb:71:b7:e6:
         88:7c:37:60:25:f8:a4:51:be:a7:a3:ed:05:20:33:97:82:92:
         bd:33:07:de:f7:f4:74:ad:5e:11:e5:a2:a4:de:cf:52:5d:a0:
         6f:94:c9:55
-----BEGIN CERTIFICATE-----
MIIDxzCCAq+gAwIBAgIBATANBgkqhkiG9w0BAQsFADCBgzELMAkGA1UEBhMCVVMx
EzARBgNVBAgMCk5ldyBKZXJzZXkxEjAQBgNVBAcMCVByaW5jZXRvbjEdMBsGA1UE
CgwUUHJpbmNldG9uIFVuaXZlcnNpdHkxDDAKBgNVBAsMA1BOSTEeMBwGA1UEAwwV
cnRjbG91ZC5wcmluY2V0b24uZWR1MB4XDTE5MDEwMTEyMDAwMFoXDTI0MDEwMTEy
MDAwMFowgYMxCzAJBgNVBAYTAlVTMRMwEQYDVQQIDApOZXcgSmVyc2V5MRIwEAYD
VQQHDAlQcmluY2V0b24xHTAbBgNVBAoMFFByaW5jZXRvbiBVbml2ZXJzaXR5MQww
CgYDVQQLDANQTkkxHjAcBgNVBAMMFXJ0Y2xvdWQucHJpbmNldG9uLmVkdTCCASIw
DQYJKoZIhvcNAQEBBQADggEPADCCAQoCggEBANCmXgy5Qh/KyQqLYpfhBXu70JAN
TO56lUXVdc0msYS7ng9q3AMf2Kfufes4/SqQOh1xs7536TizzuFiwDr2g8Lr1QGe
TfS/PgVitUaDObZkUPvE51lK4UoKBggn2zUH7iZtwx31KamcMxFAG99s6yng8unl
4r9EBUjtlSvQVcx/NY+4j0txSVcsviS9qI52oglF2UAeNYgX40XR5/eU6Ff4n3bb
AnTTILk4X05ZkkRPhRt7s7WAngdaPOwJhgfpaDwwLK0a4yip6NYltmcqA7bMETl5
QRD+920QRl8mWaoHv5LtqWoZ4l7YjcwXMwv/jXuW5snb4157uTnfhgxYdXECAwEA
AaNEMEIwQAYDVR0RBDkwN4INcHJpbmNldG9uLmVkdYIJbG9jYWxob3N0gglsb2Nh
bGhvc3SHECYH9HAABjABdRehVfsN2w8wDQYJKoZIhvcNAQELBQADggEBALhJ3+pC
CdRAD2ZMgHIDMtoBXVrAlQ0h6XxX+ZMhjgJNd04zhY01r7Z8wnpR3IPoMs0Z85k7
KurxIm6xqRa1Ctn/A3IYHyhRfVHNj/DyiSKGlW3jgfZz4G4gQuZXDHqsoSNbDXgk
khd79gIiNZ85xaNUkexIxbEyrf+fbsYaj8tjuL3CDwMGCQgxUqB7NXlZqS/R8kQ3
mS2bz004CBpusF96lNEK2EFfHdGk7ZOUv6vHCedjRMEqLbDVWbB+ZszLYD6AGZgZ
yZsT4tNkQZ3UZlPO+ajlu3G35oh8N2Al+KRRvqej7QUgM5eCkr0zB9739HStXhHl
oqTez1JdoG+UyVU=
-----END CERTIFICATE-----
